; Function Attrs: nounwind uwtable
define noalias nonnull ptr @l_Lean_PrettyPrinter_Formatter_errorAtSavedPos_formatter___boxed(ptr noundef %0, ptr noundef %1, ptr noundef %2, ptr noundef %3, ptr noundef %4, ptr noundef %5) local_unnamed_addr #0 {
  %7 = ptrtoint ptr %1 to i64
  %8 = and i64 %7, 1
  %.not = icmp eq i64 %8, 0
  br i1 %.not, label %9, label %lean_dec.exit17

9:                                                ; preds = %6
  %10 = load i32, ptr %1, align 4, !tbaa !8
  %11 = icmp sgt i32 %10, 1
  br i1 %11, label %12, label %14, !prof !11

12:                                               ; preds = %9
  %13 = add nsw i32 %10, -1
  store i32 %13, ptr %1, align 4, !tbaa !8
  br label %lean_dec.exit17

14:                                               ; preds = %9
  %.not.i = icmp eq i32 %10, 0
  br i1 %.not.i, label %lean_dec.exit17, label %15

15:                                               ; preds = %14
  tail call void @lean_dec_ref_cold(ptr noundef nonnull %1) #6
  br label %lean_dec.exit17

lean_dec.exit17:                                  ; preds = %15, %14, %12, %6
  tail call void @lean_inc_heartbeat() #6
  %16 = tail call noalias ptr @mi_malloc_small(i64 noundef 24) #6
  %17 = icmp eq ptr %16, null
  br i1 %17, label %18, label %l_Lean_PrettyPrinter_Formatter_errorAtSavedPos_formatter.exit

18:                                               ; preds = %lean_dec.exit17
  tail call void @lean_internal_panic_out_of_memory() #7
  unreachable

l_Lean_PrettyPrinter_Formatter_errorAtSavedPos_formatter.exit: ; preds = %lean_dec.exit17
  %19 = getelementptr inbounds nuw i8, ptr %16, i64 4
  store i32 1, ptr %16, align 4, !tbaa !8
  store i32 -184549352, ptr %19, align 4
  %20 = getelementptr inbounds nuw i8, ptr %16, i64 8
  store ptr @l_Lean_PrettyPrinter_Formatter_errorAtSavedPos_formatter___rarg, ptr %20, align 8, !tbaa !4
  %21 = getelementptr inbounds nuw i8, ptr %16, i64 16
  store i16 1, ptr %21, align 8, !tbaa !15
  %22 = getelementptr inbounds nuw i8, ptr %16, i64 18
  store i16 0, ptr %22, align 2, !tbaa !15
  %23 = ptrtoint ptr %5 to i64
  %24 = and i64 %23, 1
  %.not28 = icmp eq i64 %24, 0
  br i1 %.not28, label %25, label %lean_dec.exit16

25:                                               ; preds = %l_Lean_PrettyPrinter_Formatter_errorAtSavedPos_formatter.exit
  %26 = load i32, ptr %5, align 4, !tbaa !8
  %27 = icmp sgt i32 %26, 1
  br i1 %27, label %28, label %30, !prof !11

28:                                               ; preds = %25
  %29 = add nsw i32 %26, -1
  store i32 %29, ptr %5, align 4, !tbaa !8
  br label %lean_dec.exit16

30:                                               ; preds = %25
  %.not.i18 = icmp eq i32 %26, 0
  br i1 %.not.i18, label %lean_dec.exit16, label %31

31:                                               ; preds = %30
  tail call void @lean_dec_ref_cold(ptr noundef nonnull %5) #6
  br label %lean_dec.exit16

lean_dec.exit16:                                  ; preds = %31, %30, %28, %l_Lean_PrettyPrinter_Formatter_errorAtSavedPos_formatter.exit
  %32 = ptrtoint ptr %4 to i64
  %33 = and i64 %32, 1
  %.not29 = icmp eq i64 %33, 0
  br i1 %.not29, label %34, label %lean_dec.exit15

34:                                               ; preds = %lean_dec.exit16
  %35 = load i32, ptr %4, align 4, !tbaa !8
  %36 = icmp sgt i32 %35, 1
  br i1 %36, label %37, label %39, !prof !11

37:                                               ; preds = %34
  %38 = add nsw i32 %35, -1
  store i32 %38, ptr %4, align 4, !tbaa !8
  br label %lean_dec.exit15

39:                                               ; preds = %34
  %.not.i20 = icmp eq i32 %35, 0
  br i1 %.not.i20, label %lean_dec.exit15, label %40

40:                                               ; preds = %39
  tail call void @lean_dec_ref_cold(ptr noundef nonnull %4) #6
  br label %lean_dec.exit15

lean_dec.exit15:                                  ; preds = %40, %39, %37, %lean_dec.exit16
  %41 = ptrtoint ptr %3 to i64
  %42 = and i64 %41, 1
  %.not30 = icmp eq i64 %42, 0
  br i1 %.not30, label %43, label %lean_dec.exit14

43:                                               ; preds = %lean_dec.exit15
  %44 = load i32, ptr %3, align 4, !tbaa !8
  %45 = icmp sgt i32 %44, 1
  br i1 %45, label %46, label %48, !prof !11

46:                                               ; preds = %43
  %47 = add nsw i32 %44, -1
  store i32 %47, ptr %3, align 4, !tbaa !8
  br label %lean_dec.exit14

48:                                               ; preds = %43
  %.not.i22 = icmp eq i32 %44, 0
  br i1 %.not.i22, label %lean_dec.exit14, label %49

49:                                               ; preds = %48
  tail call void @lean_dec_ref_cold(ptr noundef nonnull %3) #6
  br label %lean_dec.exit14

lean_dec.exit14:                                  ; preds = %49, %48, %46, %lean_dec.exit15
  %50 = ptrtoint ptr %2 to i64
  %51 = and i64 %50, 1
  %.not31 = icmp eq i64 %51, 0
  br i1 %.not31, label %52, label %lean_dec.exit13

52:                                               ; preds = %lean_dec.exit14
  %53 = load i32, ptr %2, align 4, !tbaa !8
  %54 = icmp sgt i32 %53, 1
  br i1 %54, label %55, label %57, !prof !11

55:                                               ; preds = %52
  %56 = add nsw i32 %53, -1
  store i32 %56, ptr %2, align 4, !tbaa !8
  br label %lean_dec.exit13

57:                                               ; preds = %52
  %.not.i24 = icmp eq i32 %53, 0
  br i1 %.not.i24, label %lean_dec.exit13, label %58

58:                                               ; preds = %57
  tail call void @lean_dec_ref_cold(ptr noundef nonnull %2) #6
  br label %lean_dec.exit13

lean_dec.exit13:                                  ; preds = %58, %57, %55, %lean_dec.exit14
  %59 = ptrtoint ptr %0 to i64
  %60 = and i64 %59, 1
  %.not32 = icmp eq i64 %60, 0
  br i1 %.not32, label %61, label %lean_dec.exit

61:                                               ; preds = %lean_dec.exit13
  %62 = load i32, ptr %0, align 4, !tbaa !8
  %63 = icmp sgt i32 %62, 1
  br i1 %63, label %64, label %66, !prof !11

64:                                               ; preds = %61
  %65 = add nsw i32 %62, -1
  store i32 %65, ptr %0, align 4, !tbaa !8
  br label %lean_dec.exit

66:                                               ; preds = %61
  %.not.i26 = icmp eq i32 %62, 0
  br i1 %.not.i26, label %lean_dec.exit, label %67

67:                                               ; preds = %66
  tail call void @lean_dec_ref_cold(ptr noundef nonnull %0) #6
  br label %lean_dec.exit

lean_dec.exit:                                    ; preds = %67, %66, %64, %lean_dec.exit13
  ret ptr %16
}